target datalayout = "e-m:e-p270:32:32-p271:32:32-p272:64:64-i64:64-i128:128-f80:128-n8:16:32:64-S128"
target triple = "x86_64-pc-linux-gnu"

%struct.tokenize_state = type { ptr }

@tokenizeriter_spec = internal global { ptr, i32, i32, i32, [4 x i8], ptr } { ptr @.str.2, i32 64, i32 0, i32 256, [4 x i8] zeroinitializer, ptr @tokenizeriter_slots }, align 8

; Function Attrs: nounwind uwtable
define internal ptr @get_tokenize_state(ptr noundef %0) #0 {
  %2 = alloca ptr, align 8
  store ptr %0, ptr %2, align 8, !tbaa !4
  %3 = load ptr, ptr %2, align 8, !tbaa !4
  %4 = call ptr @PyModule_GetState(ptr noundef %3)
  ret ptr %4
}

; Function Attrs: nounwind uwtable
define internal i32 @tokenizemodule_exec(ptr noundef %0) #0 {
  %2 = alloca i32, align 4
  %3 = alloca ptr, align 8
  %4 = alloca ptr, align 8
  %5 = alloca i32, align 4
  store ptr %0, ptr %3, align 8, !tbaa !4
  call void @llvm.lifetime.start.p0(i64 8, ptr %4) #6
  %6 = load ptr, ptr %3, align 8, !tbaa !4
  %7 = call ptr @get_tokenize_state(ptr noundef %6)
  store ptr %7, ptr %4, align 8, !tbaa !9
  %8 = load ptr, ptr %4, align 8, !tbaa !9
  %9 = icmp eq ptr %8, null
  br i1 %9, label %10, label %11

10:                                               ; preds = %1
  store i32 -1, ptr %2, align 4
  store i32 1, ptr %5, align 4
  br label %30

11:                                               ; preds = %1
  %12 = load ptr, ptr %3, align 8, !tbaa !4
  %13 = call ptr @PyType_FromModuleAndSpec(ptr noundef %12, ptr noundef @tokenizeriter_spec, ptr noundef null)
  %14 = load ptr, ptr %4, align 8, !tbaa !9
  %15 = getelementptr inbounds nuw %struct.tokenize_state, ptr %14, i32 0, i32 0
  store ptr %13, ptr %15, align 8, !tbaa !10
  %16 = load ptr, ptr %4, align 8, !tbaa !9
  %17 = getelementptr inbounds nuw %struct.tokenize_state, ptr %16, i32 0, i32 0
  %18 = load ptr, ptr %17, align 8, !tbaa !10
  %19 = icmp eq ptr %18, null
  br i1 %19, label %20, label %21

20:                                               ; preds = %11
  store i32 -1, ptr %2, align 4
  store i32 1, ptr %5, align 4
  br label %30

21:                                               ; preds = %11
  %22 = load ptr, ptr %3, align 8, !tbaa !4
  %23 = load ptr, ptr %4, align 8, !tbaa !9
  %24 = getelementptr inbounds nuw %struct.tokenize_state, ptr %23, i32 0, i32 0
  %25 = load ptr, ptr %24, align 8, !tbaa !10
  %26 = call i32 @PyModule_AddType(ptr noundef %22, ptr noundef %25)
  %27 = icmp slt i32 %26, 0
  br i1 %27, label %28, label %29

28:                                               ; preds = %21
  store i32 -1, ptr %2, align 4
  store i32 1, ptr %5, align 4
  br label %30

29:                                               ; preds = %21
  store i32 0, ptr %2, align 4
  store i32 1, ptr %5, align 4
  br label %30

30:                                               ; preds = %29, %28, %20, %10
  call void @llvm.lifetime.end.p0(i64 8, ptr %4) #6
  %31 = load i32, ptr %2, align 4
  ret i32 %31
}