; Function Attrs: nounwind uwtable
define internal range(i32 -1, 1) i32 @tokenizemodule_exec(ptr noundef %0) #0 {
  %2 = tail call ptr @PyModule_GetState(ptr noundef %0) #6
  %3 = icmp eq ptr %2, null
  br i1 %3, label %9, label %4

4:                                                ; preds = %1
  %5 = tail call ptr @PyType_FromModuleAndSpec(ptr noundef %0, ptr noundef nonnull @tokenizeriter_spec, ptr noundef null) #6
  store ptr %5, ptr %2, align 8, !tbaa !4
  %6 = icmp eq ptr %5, null
  br i1 %6, label %9, label %7

7:                                                ; preds = %4
  %8 = tail call i32 @PyModule_AddType(ptr noundef %0, ptr noundef nonnull %5) #6
  %.lobit = ashr i32 %8, 31
  br label %9

9:                                                ; preds = %7, %4, %1
  %.0 = phi i32 [ -1, %1 ], [ -1, %4 ], [ %.lobit, %7 ]
  ret i32 %.0
}